(dp1
S'startDate'
p2
(dp3
S'val'
p4
S'2018-06-13'
p5
ssS'log'
p6
(dp7
S'val'
p8
(lp9
ssS'monthTotals'
p10
(dp11
g8
(dp12
ssS'wsum'
p13
(dp14
g8
(dp15
I0
I0
sI1
I0
sI2
I0
sI3
I0
sI4
I0
sI5
I0
sI6
I0
sssS'miez'
p16
(dp17
S'val'
p18
S'hopp'
p19
ssS'total'
p20
(dp21
g8
I0
ssS'calYrTotal'
p22
(dp23
g8
I0
ss.