(dp1
S'startDate'
p2
(dp3
S'val'
p4
S'2018-01-01'
p5
ssS'log'
p6
(dp7
g4
(lp8
(dp9
S'date'
p10
S'm\xc3\xa1j-12'
p11
sS'alc_type'
p12
S'wine'
p13
sS'qt'
p14
I10
sa(dp15
g10
g11
sg12
S'beer'
p16
sg14
I22
sa(dp17
g10
g11
sg12
S'spirit'
p18
sg14
F0.5
sa(dp19
g10
g11
sg12
S'cider'
p20
sg14
F6.6600000000000001
sa(dp21
g10
g11
sg12
S'champagne'
p22
sg14
I3
sa(dp23
g10
S'm\xc3\xa1j-13'
p24
sg12
g16
sg14
I1
sa(dp25
g10
g24
sg12
g16
sg14
I8
sa(dp26
g10
S'm\xc3\xa1j-17'
p27
sg12
g20
sg14
F3.2999999999999998
sa(dp28
g10
S'm\xc3\xa1j-18'
p29
sg12
g13
sg14
F1.5
sa(dp30
g10
S'm\xc3\xa1j-19'
p31
sg12
g16
sg14
I2
sa(dp32
g10
g31
sg12
g13
sg14
I2
sa(dp33
g10
g31
sg12
g16
sg14
I3
sa(dp34
g10
g31
sg12
g22
sg14
F3.5
sa(dp35
g10
S'm\xc3\xa1j-20'
p36
sg12
g13
sg14
I1
sa(dp37
g10
S'm\xc3\xa1j-21'
p38
sg12
g13
sg14
I1
sa(dp39
g10
S'm\xc3\xa1j-25'
p40
sg12
g13
sg14
I4
sa(dp41
g10
S'may-26'
p42
sg12
g20
sg14
F3.2999999999999998
sa(dp43
g10
g42
sg12
g16
sg14
I10
sa(dp44
g10
S'may-27'
p45
sg12
g13
sg14
I1
sa(dp46
g10
g45
sg12
g18
sg14
F0.40000000000000002
sa(dp47
g10
S'jun-02'
p48
sg12
g20
sg14
F3.2999999999999998
sa(dp49
g10
g48
sg12
g13
sg14
I3
sa(dp50
g10
S'jun-07'
p51
sg12
g16
sg14
I5
sa(dp52
g10
S'jun-08'
p53
sg12
g20
sg14
I4
sa(dp54
g10
g53
sg12
g13
sg14
I2
sa(dp55
g10
g53
sg12
g16
sg14
I5
sa(dp56
g10
S'jun-09'
p57
sg12
g13
sg14
I1
sassS'monthTotals'
p58
(dp59
g4
(dp60
I1
F5.9299999999999997
sI2
F5.9299999999999997
sI3
F7.5
sI4
F7.2130000000000001
sI5
F6.4000000000000004
sI6
F1.5
sssS'wsum'
p61
(dp62
g4
(dp63
I0
I0
sI1
I0
sI2
I0
sI3
I0
sI4
I0
sI5
I0
sI6
I0
sssS'total'
p64
(dp65
g4
F34.472999999999999
ssS'calYrTotal'
p66
(dp67
g4
F34.472999999999999
ss.